(lp0
(lp1
VCleveland Cavaliers
p2
aVBoston Celtics
p3
aVH
p4
aa(lp5
VHouston Rockets
p6
aVGolden State Warriors
p7
aVV
p8
aa(lp9
VMilwaukee Bucks
p10
ag3
ag8
aa(lp11
VAtlanta Hawks
p12
aVDallas Mavericks
p13
ag8
aa(lp14
VDetroit Pistons
p15
aVCharlotte Hornets
p16
ag4
aa(lp17
VIndiana Pacers
p18
aVBrooklyn Nets
p19
ag4
aa(lp20
VMemphis Grizzlies
p21
aVNew Orleans Pelicans
p22
ag4
aa(lp23
VOrlando Magic
p24
aVMiami Heat
p25
ag4
aa(lp26
VPortland Trail Blazers
p27
aVPhoenix Suns
p28
ag8
aa(lp29
g6
aVSacramento Kings
p30
ag8
aa(lp31
VSan Antonio Spurs
p32
aVMinnesota Timberwolves
p33
ag4
aa(lp34
VUtah Jazz
p35
aVDenver Nuggets
p36
ag4
aa(lp37
VWashington Wizards
p38
aVPhiladelphia 76ers
p39
ag4
aa(lp40
VLos Angeles Clippers
p41
aVLos Angeles Lakers
p42
ag8
aa(lp43
VOklahoma City Thunder
p44
aVNew York Knicks
p45
ag4
aa(lp46
VToronto Raptors
p47
aVChicago Bulls
p48
ag4
aa(lp49
VBrooklyn Nets
p50
aVOrlando Magic
p51
ag4
aa(lp52
VCharlotte Hornets
p53
aVAtlanta Hawks
p54
ag4
aa(lp55
VSacramento Kings
p56
ag13
ag8
aa(lp57
g27
aVIndiana Pacers
p58
ag8
aa(lp59
g2
aVMilwaukee Bucks
p60
ag8
aa(lp61
VMinnesota Timberwolves
p62
aVUtah Jazz
p63
ag4
aa(lp64
VGolden State Warriors
p65
ag22
ag8
aa(lp66
VBoston Celtics
p67
ag39
ag8
aa(lp68
VLos Angeles Lakers
p69
ag28
ag8
aa(lp70
g38
aVDetroit Pistons
p71
ag4
aa(lp72
g32
ag48
ag8
aa(lp73
g24
aVCleveland Cavaliers
p74
ag8
aa(lp75
VDenver Nuggets
p76
ag30
ag4
aa(lp77
g6
ag13
ag4
aa(lp78
g41
ag28
ag4
aa(lp79
g21
ag7
ag4
aa(lp80
VMiami Heat
p81
ag58
ag4
aa(lp82
g10
aVPortland Trail Blazers
p83
ag4
aa(lp84
g15
ag45
ag8
aa(lp85
g47
ag39
ag4
aa(lp86
g35
aVOklahoma City Thunder
p87
ag4
aa(lp88
g50
ag54
ag4
aa(lp89
VNew Orleans Pelicans
p90
ag42
ag8
aa(lp91
g62
ag87
ag8
aa(lp92
g65
ag13
ag8
aa(lp93
g38
ag36
ag8
aa(lp94
VPhiladelphia 76ers
p95
ag71
ag8
aa(lp96
g21
aVHouston Rockets
p97
ag8
aa(lp98
g81
ag54
ag4
aa(lp99
g10
ag16
ag4
aa(lp100
VPhoenix Suns
p101
ag30
ag4
aa(lp102
g32
aVToronto Raptors
p103
ag4
aa(lp104
g67
ag45
ag4
aa(lp105
g2
ag48
ag4
aa(lp106
g41
ag63
ag4
aa(lp107
g18
ag33
ag8
aa(lp108
g24
ag19
ag4
aa(lp109
g27
ag22
ag4
aa(lp110
g50
ag74
ag4
aa(lp111
g53
ag36
ag4
aa(lp112
VDallas Mavericks
p113
aVMemphis Grizzlies
p114
ag4
aa(lp115
g15
ag33
ag4
aa(lp116
g65
ag103
ag4
aa(lp117
g69
aVWashington Wizards
p118
ag4
aa(lp119
g32
ag25
ag8
aa(lp120
g44
ag58
ag4
aa(lp121
g6
ag39
ag8
aa(lp122
g101
ag63
ag4
aa(lp123
VChicago Bulls
p124
ag54
ag4
aa(lp125
g21
ag13
ag4
aa(lp126
g67
ag60
ag8
aa(lp127
g41
ag83
ag8
aa(lp128
g90
ag30
ag8
aa(lp129
g76
ag54
ag8
aa(lp130
g6
ag16
ag8
aa(lp131
g65
ag118
ag4
aa(lp132
g47
ag42
ag8
aa(lp133
g62
ag87
ag4
aa(lp134
VNew York Knicks
p135
ag19
ag4
aa(lp136
g24
aVSan Antonio Spurs
p137
ag4
aa(lp138
g44
ag48
ag8
aa(lp139
g95
ag13
ag8
aa(lp140
g15
aVLos Angeles Clippers
p141
ag8
aa(lp142
g21
ag97
ag4
aa(lp143
g67
ag25
ag8
aa(lp144
g90
ag74
ag4
aa(lp145
g27
ag28
ag4
aa(lp146
g35
ag42
ag4
aa(lp147
g10
ag54
ag8
aa(lp148
g76
ag19
ag8
aa(lp149
g53
ag51
ag4
aa(lp150
g135
ag74
ag8
aa(lp151
g15
ag7
ag8
aa(lp152
g18
ag137
ag4
aa(lp153
g38
ag30
ag8
aa(lp154
g67
ag137
ag4
aa(lp155
g95
ag97
ag8
aa(lp156
g65
ag141
ag8
aa(lp157
g53
ag114
ag8
aa(lp158
g62
ag25
ag8
aa(lp159
g24
ag22
ag8
aa(lp160
g135
ag36
ag4
aa(lp161
g47
ag83
ag8
aa(lp162
g35
ag13
ag4
aa(lp163
g101
ag19
ag8
aa(lp164
g18
ag30
ag4
aa(lp165
g69
ag71
ag4
aa(lp166
g44
ag60
ag8
aa(lp167
g67
ag30
ag4
aa(lp168
g53
ag60
ag4
aa(lp169
g18
ag74
ag8
aa(lp170
g76
ag103
ag4
aa(lp171
g41
ag13
ag4
aa(lp172
g24
ag114
ag8
aa(lp173
g81
ag48
ag4
aa(lp174
g62
ag22
ag8
aa(lp175
g6
ag45
ag8
aa(lp176
g95
ag54
ag4
aa(lp177
g35
ag83
ag4
aa(lp178
g101
ag118
ag8
aa(lp179
g27
ag42
ag4
aa(lp180
g65
ag137
ag8
aa(lp181
g6
ag54
ag8
aa(lp182
g90
ag13
ag8
aa(lp183
g76
ag25
ag4
aa(lp184
g15
ag60
ag4
aa(lp185
g69
ag19
ag4
aa(lp186
g135
ag28
ag4
aa(lp187
g67
ag87
ag8
aa(lp188
g124
ag51
ag8
aa(lp189
g95
ag58
ag4
aa(lp190
g32
ag16
ag4
aa(lp191
g47
ag63
ag8
aa(lp192
g2
ag118
ag8
aa(lp193
g90
ag48
ag8
aa(lp194
g65
ag36
ag8
aa(lp195
g15
ag30
ag4
aa(lp196
g21
ag141
ag8
aa(lp197
g62
ag13
ag4
aa(lp198
g12
ag74
ag8
aa(lp199
g6
ag63
ag4
aa(lp200
g81
ag141
ag8
aa(lp201
g69
ag114
ag4
aa(lp202
g62
ag16
ag4
aa(lp203
g135
ag58
ag4
aa(lp204
g67
ag51
ag8
aa(lp205
g27
ag87
ag4
aa(lp206
g32
ag28
ag4
aa(lp207
g38
ag103
ag8
aa(lp208
g67
ag54
ag8
aa(lp209
g65
ag25
ag4
aa(lp210
g50
ag28
ag8
aa(lp211
g2
ag60
ag4
aa(lp212
g76
ag19
ag4
aa(lp213
g90
ag58
ag8
aa(lp214
g135
ag16
ag4
aa(lp215
g21
ag83
ag8
aa(lp216
g56
ag87
ag4
aa(lp217
g32
ag141
ag4
aa(lp218
g47
ag48
ag4
aa(lp219
g95
ag63
ag8
aa(lp220
g113
ag118
ag8
aa(lp221
g67
ag42
ag4
aa(lp222
g15
ag58
ag4
aa(lp223
g65
ag33
ag4
aa(lp224
g24
ag45
ag4
aa(lp225
g81
ag28
ag8
aa(lp226
g76
ag87
ag4
aa(lp227
g6
ag74
ag4
aa(lp228
g56
ag39
ag4
aa(lp229
g47
ag22
ag4
aa(lp230
g38
ag42
ag4
aa(lp231
g67
ag16
ag4
aa(lp232
g18
ag48
ag8
aa(lp233
g15
ag54
ag4
aa(lp234
g44
ag141
ag4
aa(lp235
g24
ag28
ag8
aa(lp236
g50
ag83
ag8
aa(lp237
g10
ag137
ag8
aa(lp238
g81
ag63
ag8
aa(lp239
g2
ag13
ag8
aa(lp240
g76
ag51
ag4
aa(lp241
g65
ag39
ag4
aa(lp242
g6
ag114
ag4
aa(lp243
g10
ag42
ag4
aa(lp244
g90
ag141
ag4
aa(lp245
g135
ag30
ag4
aa(lp246
g101
ag33
ag4
aa(lp247
g32
ag48
ag4
aa(lp248
g35
ag19
ag4
aa(lp249
g38
ag54
ag4
aa(lp250
g67
ag103
ag4
aa(lp251
g15
ag25
ag4
aa(lp252
g6
ag58
ag8
aa(lp253
g44
ag13
ag4
aa(lp254
g65
ag51
ag4
aa(lp255
g95
ag141
ag8
aa(lp256
g10
ag114
ag4
aa(lp257
g90
ag54
ag4
aa(lp258
g2
ag45
ag8
aa(lp259
g69
ag28
ag8
aa(lp260
g27
ag36
ag4
aa(lp261
g62
ag63
ag8
aa(lp262
g38
ag30
ag4
aa(lp263
g67
ag19
ag8
aa(lp264
g32
ag13
ag8
aa(lp265
g47
ag97
ag8
aa(lp266
g12
ag30
ag4
aa(lp267
g2
ag16
ag8
aa(lp268
g95
ag42
ag8
aa(lp269
g18
ag114
ag8
aa(lp270
g38
ag25
ag8
aa(lp271
g10
ag71
ag4
aa(lp272
g62
ag137
ag4
aa(lp273
g47
ag22
ag8
aa(lp274
g135
ag63
ag4
aa(lp275
g44
ag48
ag4
aa(lp276
g27
ag51
ag4
aa(lp277
g67
ag7
ag4
aa(lp278
g6
ag28
ag8
aa(lp279
g50
ag63
ag4
aa(lp280
g124
ag16
ag4
aa(lp281
g2
ag141
ag4
aa(lp282
g62
ag13
ag8
aa(lp283
g76
ag22
ag4
aa(lp284
g18
ag71
ag4
aa(lp285
g101
ag42
ag8
aa(lp286
g56
ag83
ag4
aa(lp287
g32
ag87
ag4
aa(lp288
g47
ag45
ag4
aa(lp289
g81
ag118
ag8
aa(lp290
g67
ag54
ag8
aa(lp291
g53
ag141
ag4
aa(lp292
g113
ag60
ag4
aa(lp293
g6
ag114
ag8
aa(lp294
g35
ag51
ag8
aa(lp295
g65
ag39
ag8
aa(lp296
g27
ag30
ag4
aa(lp297
g65
ag19
ag8
aa(lp298
g69
ag36
ag4
aa(lp299
g18
ag25
ag8
aa(lp300
g15
ag33
ag8
aa(lp301
g101
ag48
ag4
aa(lp302
g47
ag118
ag4
aa(lp303
g53
ag33
ag4
aa(lp304
g67
ag13
ag8
aa(lp305
g2
ag71
ag8
aa(lp306
g27
ag114
ag8
aa(lp307
g38
ag60
ag8
aa(lp308
g90
ag87
ag4
aa(lp309
g135
ag141
ag4
aa(lp310
g18
ag51
ag8
aa(lp311
g95
ag63
ag4
aa(lp312
g76
ag30
ag8
aa(lp313
g32
ag54
ag4
aa(lp314
g69
ag48
ag4
aa(lp315
g41
ag54
ag8
aa(lp316
g53
ag118
ag4
aa(lp317
g2
ag19
ag4
aa(lp318
g6
ag36
ag4
aa(lp319
g113
ag114
ag8
aa(lp320
g81
ag3
ag4
aa(lp321
g62
ag51
ag4
aa(lp322
g90
ag137
ag4
aa(lp323
g135
ag103
ag4
aa(lp324
g44
ag7
ag4
aa(lp325
g95
ag83
ag4
aa(lp326
g10
ag28
ag8
aa(lp327
g56
ag42
ag4
aa(lp328
g35
ag48
ag4
aa(lp329
g12
ag45
ag4
aa(lp330
g67
ag51
ag4
aa(lp331
g27
ag19
ag8
aa(lp332
g2
ag16
ag4
aa(lp333
g76
ag114
ag4
aa(lp334
g65
ag48
ag4
aa(lp335
g18
ag103
ag4
aa(lp336
g81
ag33
ag8
aa(lp337
g15
ag87
ag8
aa(lp338
g90
ag28
ag8
aa(lp339
g47
ag54
ag8
aa(lp340
g32
ag16
ag8
aa(lp341
g113
ag87
ag4
aa(lp342
g65
ag22
ag4
aa(lp343
g6
ag45
ag4
aa(lp344
g67
ag58
ag8
aa(lp345
g95
ag51
ag4
aa(lp346
g41
ag30
ag8
aa(lp347
g35
ag60
ag4
aa(lp348
g27
ag118
ag8
aa(lp349
g81
ag48
ag8
aa(lp350
g50
ag114
ag8
aa(lp351
g62
ag28
ag4
aa(lp352
g15
ag3
ag8
aa(lp353
g56
ag7
ag8
aa(lp354
g6
ag19
ag4
aa(lp355
g18
ag51
ag4
aa(lp356
g41
ag42
ag4
aa(lp357
g27
ag45
ag8
aa(lp358
g2
ag39
ag8
aa(lp359
g32
ag13
ag4
aa(lp360
g101
ag48
ag8
aa(lp361
g2
ag25
ag4
aa(lp362
g38
ag33
ag8
aa(lp363
g10
ag30
ag8
aa(lp364
g35
ag36
ag4
aa(lp365
g50
ag13
ag8
aa(lp366
g15
ag28
ag4
aa(lp367
g6
ag58
ag4
aa(lp368
g65
ag42
ag8
aa(lp369
g62
ag22
ag8
aa(lp370
g135
ag25
ag4
aa(lp371
g24
ag87
ag4
aa(lp372
g95
ag118
ag4
aa(lp373
g32
ag114
ag4
aa(lp374
g47
ag16
ag4
aa(lp375
g2
ag54
ag8
aa(lp376
g67
ag39
ag4
aa(lp377
g76
ag48
ag4
aa(lp378
g35
ag141
ag8
aa(lp379
g10
ag83
ag8
aa(lp380
g56
ag48
ag8
aa(lp381
g32
ag114
ag8
aa(lp382
g81
ag16
ag4
aa(lp383
g44
ag33
ag4
aa(lp384
g65
ag51
ag8
aa(lp385
g47
ag58
ag4
aa(lp386
g35
ag22
ag4
aa(lp387
g38
ag71
ag4
aa(lp388
g67
ag28
ag4
aa(lp389
g12
ag19
ag8
aa(lp390
g2
ag114
ag4
aa(lp391
g113
ag141
ag4
aa(lp392
g76
ag42
ag4
aa(lp393
g10
ag30
ag4
aa(lp394
g95
ag71
ag4
aa(lp395
g90
ag83
ag8
aa(lp396
g6
ag42
ag8
aa(lp397
g65
ag25
ag8
aa(lp398
g62
ag141
ag4
aa(lp399
g24
ag45
ag8
aa(lp400
g44
ag137
ag4
aa(lp401
g50
ag54
ag8
aa(lp402
g67
ag60
ag4
aa(lp403
g2
ag48
ag8
aa(lp404
g53
ag51
ag4
aa(lp405
g113
ag36
ag4
aa(lp406
g18
ag45
ag4
aa(lp407
g21
ag33
ag4
aa(lp408
g65
ag22
ag8
aa(lp409
g101
ag39
ag8
aa(lp410
g32
ag71
ag4
aa(lp411
g35
ag118
ag4
aa(lp412
g44
ag63
ag4
aa(lp413
g38
ag83
ag8
aa(lp414
g47
ag28
ag4
aa(lp415
g67
ag13
ag4
aa(lp416
g65
ag16
ag8
aa(lp417
g2
ag30
ag4
aa(lp418
g18
ag48
ag4
aa(lp419
g62
ag141
ag8
aa(lp420
g10
ag71
ag4
aa(lp421
g90
ag36
ag4
aa(lp422
g135
ag114
ag4
aa(lp423
g24
ag54
ag4
aa(lp424
g32
ag25
ag4
aa(lp425
g50
ag87
ag4
aa(lp426
g69
ag39
ag8
aa(lp427
g38
ag28
ag8
aa(lp428
g6
ag63
ag8
aa(lp429
g124
ag16
ag8
aa(lp430
g65
ag71
ag8
aa(lp431
g18
ag74
ag4
aa(lp432
g47
ag114
ag8
aa(lp433
g10
ag13
ag4
aa(lp434
g56
ag22
ag8
aa(lp435
g76
ag51
ag8
aa(lp436
g32
ag3
ag4
aa(lp437
g12
ag51
ag4
aa(lp438
g81
ag19
ag8
aa(lp439
g124
ag45
ag4
aa(lp440
g69
ag16
ag8
aa(lp441
g2
ag39
ag4
aa(lp442
g41
ag118
ag4
aa(lp443
g44
ag114
ag8
aa(lp444
g10
ag63
ag4
aa(lp445
g32
ag28
ag8
aa(lp446
g6
ag83
ag8
aa(lp447
g67
ag71
ag8
aa(lp448
g18
ag36
ag4
aa(lp449
g62
ag13
ag4
aa(lp450
g90
ag39
ag4
aa(lp451
g135
ag54
ag4
aa(lp452
g47
ag30
ag8
aa(lp453
g124
ag3
ag4
aa(lp454
g65
ag83
ag4
aa(lp455
g6
ag22
ag4
aa(lp456
g41
ag103
ag4
aa(lp457
g81
ag114
ag8
aa(lp458
g53
ag87
ag8
aa(lp459
g50
ag118
ag4
aa(lp460
g2
ag54
ag4
aa(lp461
g113
ag137
ag4
aa(lp462
g76
ag71
ag8
aa(lp463
g95
ag33
ag8
aa(lp464
g135
ag42
ag4
aa(lp465
g56
ag28
ag4
aa(lp466
g67
ag36
ag4
aa(lp467
g124
ag63
ag4
aa(lp468
g6
ag16
ag4
aa(lp469
g44
ag58
ag8
aa(lp470
g27
ag25
ag8
aa(lp471
g90
ag60
ag4
aa(lp472
g41
ag51
ag8
aa(lp473
g47
ag28
ag8
aa(lp474
g38
ag114
ag4
aa(lp475
g15
ag54
ag8
aa(lp476
g135
ag19
ag8
aa(lp477
g2
ag42
ag4
aa(lp478
g65
ag13
ag4
aa(lp479
g62
ag30
ag4
aa(lp480
g35
ag3
ag8
aa(lp481
g81
ag16
ag8
aa(lp482
g76
ag22
ag4
aa(lp483
g6
ag137
ag4
aa(lp484
g15
ag58
ag8
aa(lp485
g21
ag54
ag4
aa(lp486
g124
ag60
ag8
aa(lp487
g27
ag51
ag8
aa(lp488
g44
ag39
ag8
aa(lp489
g47
ag19
ag4
aa(lp490
g38
ag141
ag4
aa(lp491
g27
ag16
ag8
aa(lp492
g2
ag63
ag4
aa(lp493
g6
ag60
ag4
aa(lp494
g67
ag114
ag8
aa(lp495
g81
ag141
ag4
aa(lp496
g101
ag33
ag8
aa(lp497
g135
ag87
ag4
aa(lp498
g32
ag13
ag4
aa(lp499
g18
ag19
ag8
aa(lp500
g15
ag51
ag4
aa(lp501
g47
ag30
ag4
aa(lp502
g2
ag118
ag8
aa(lp503
g12
ag25
ag4
aa(lp504
g124
ag39
ag4
aa(lp505
g53
ag45
ag4
aa(lp506
g101
ag13
ag8
aa(lp507
g6
ag63
ag4
aa(lp508
g67
ag58
ag8
aa(lp509
g65
ag42
ag8
aa(lp510
g62
ag83
ag4
aa(lp511
g44
ag36
ag4
aa(lp512
g32
ag141
ag4
aa(lp513
g10
ag74
ag4
aa(lp514
g56
ag39
ag8
aa(lp515
g38
ag22
ag4
aa(lp516
g18
ag54
ag8
aa(lp517
g81
ag3
ag8
aa(lp518
g56
ag19
ag8
aa(lp519
g124
ag51
ag4
aa(lp520
g47
ag16
ag8
aa(lp521
g113
ag71
ag4
aa(lp522
g62
ag36
ag8
aa(lp523
g65
ag114
ag4
aa(lp524
g69
ag97
ag8
aa(lp525
g41
ag28
ag4
aa(lp526
g44
ag63
ag4
aa(lp527
g32
ag83
ag8
aa(lp528
g2
ag48
ag4
aa(lp529
g135
ag3
ag4
aa(lp530
g47
ag39
ag8
aa(lp531
g101
ag114
ag4
aa(lp532
g35
ag137
ag4
aa(lp533
g50
ag118
ag4
aa(lp534
g15
ag45
ag4
aa(lp535
g65
ag42
ag4
aa(lp536
g41
ag97
ag8
aa(lp537
g81
ag13
ag4
aa(lp538
g10
ag16
ag4
aa(lp539
g44
ag54
ag4
aa(lp540
g90
ag51
ag8
aa(lp541
g76
ag83
ag8
aa(lp542
g12
ag13
ag4
aa(lp543
g67
ag48
ag4
aa(lp544
g53
ag60
ag4
aa(lp545
g76
ag7
ag8
aa(lp546
g18
ag19
ag4
aa(lp547
g27
ag42
ag8
aa(lp548
g21
ag141
ag4
aa(lp549
g90
ag25
ag8
aa(lp550
g62
ag28
ag8
aa(lp551
g32
ag30
ag8
aa(lp552
g47
ag39
ag4
aa(lp553
g44
ag63
ag8
aa(lp554
g38
ag51
ag4
aa(lp555
g38
ag3
ag8
aa(lp556
g65
ag74
ag4
aa(lp557
g62
ag42
ag8
aa(lp558
g95
ag45
ag8
aa(lp559
g44
ag97
ag4
aa(lp560
g113
ag103
ag4
aa(lp561
g76
ag63
ag4
aa(lp562
g15
ag58
ag4
aa(lp563
g41
ag30
ag4
aa(lp564
g81
ag51
ag4
aa(lp565
g124
ag60
ag8
aa(lp566
g101
ag114
ag4
aa(lp567
g32
ag19
ag4
aa(lp568
g12
ag118
ag4
aa(lp569
g124
ag45
ag4
aa(lp570
g67
ag16
ag8
aa(lp571
g65
ag63
ag4
aa(lp572
g113
ag58
ag8
aa(lp573
g21
ag42
ag8
aa(lp574
g62
ag36
ag4
aa(lp575
g90
ag19
ag4
aa(lp576
g44
ag103
ag4
aa(lp577
g56
ag74
ag4
aa(lp578
g67
ag97
ag4
aa(lp579
g10
ag33
ag4
aa(lp580
g24
ag71
ag4
aa(lp581
g27
ag39
ag4
aa(lp582
g32
ag45
ag4
aa(lp583
g124
ag58
ag4
aa(lp584
g53
ag7
ag8
aa(lp585
g41
ag42
ag8
aa(lp586
g50
ag25
ag8
aa(lp587
g113
ag22
ag8
aa(lp588
g10
ag87
ag8
aa(lp589
g101
ag30
ag8
aa(lp590
g47
ag54
ag4
aa(lp591
g38
ag97
ag4
aa(lp592
g12
ag83
ag4
aa(lp593
g95
ag36
ag8
aa(lp594
g15
ag137
ag4
aa(lp595
g65
ag114
ag4
aa(lp596
g135
ag22
ag8
aa(lp597
g81
ag51
ag8
aa(lp598
g35
ag74
ag4
aa(lp599
g67
ag19
ag4
aa(lp600
g6
ag42
ag4
aa(lp601
g62
ag58
ag8
aa(lp602
g41
ag16
ag4
aa(lp603
g113
ag87
ag8
aa(lp604
g95
ag28
ag8
aa(lp605
g21
ag30
ag8
aa(lp606
g38
ag48
ag4
aa(lp607
g50
ag51
ag4
aa(lp608
g27
ag48
ag8
aa(lp609
g62
ag42
ag4
aa(lp610
g47
ag60
ag4
aa(lp611
g2
ag83
ag4
aa(lp612
g41
ag114
ag4
aa(lp613
g32
ag45
ag8
aa(lp614
g101
ag54
ag4
aa(lp615
g53
ag30
ag8
aa(lp616
g67
ag74
ag4
aa(lp617
g50
ag33
ag4
aa(lp618
g47
ag48
ag8
aa(lp619
g65
ag13
ag8
aa(lp620
g76
ag28
ag4
aa(lp621
g44
ag42
ag8
aa(lp622
g81
ag71
ag4
aa(lp623
g10
ag58
ag4
aa(lp624
g6
ag51
ag8
aa(lp625
g95
ag137
ag4
aa(lp626
g90
ag63
ag8
aa(lp627
g38
ag45
ag4
aa(lp628
g65
ag97
ag8
aa(lp629
g44
ag141
ag8
aa(lp630
g67
ag33
ag4
aa(lp631
g124
ag13
ag8
aa(lp632
g76
ag63
ag4
aa(lp633
g53
ag42
ag8
aa(lp634
g38
ag114
ag8
aa(lp635
g81
ag45
ag4
aa(lp636
g47
ag60
ag8
aa(lp637
g95
ag71
ag4
aa(lp638
g27
ag54
ag4
aa(lp639
g32
ag28
ag4
aa(lp640
g67
ag19
ag8
aa(lp641
g15
ag97
ag4
aa(lp642
g18
ag48
ag4
aa(lp643
g65
ag141
ag8
aa(lp644
g62
ag22
ag4
aa(lp645
g2
ag51
ag8
aa(lp646
g56
ag36
ag4
aa(lp647
g10
ag118
ag8
aa(lp648
g135
ag13
ag8
aa(lp649
g69
ag54
ag4
aa(lp650
g81
ag63
ag4
aa(lp651
g101
ag87
ag4
aa(lp652
g27
ag137
ag4
aa(lp653
g47
ag19
ag8
aa(lp654
g6
ag48
ag8
aa(lp655
g65
ag36
ag4
aa(lp656
g18
ag60
ag4
aa(lp657
g41
ag54
ag4
aa(lp658
g62
ag74
ag4
aa(lp659
g90
ag71
ag4
aa(lp660
g32
ag30
ag8
aa(lp661
g113
ag51
ag4
aa(lp662
g69
ag30
ag4
aa(lp663
g27
ag87
ag8
aa(lp664
g81
ag103
ag8
aa(lp665
g15
ag19
ag8
aa(lp666
g113
ag16
ag8
aa(lp667
g12
ag36
ag8
aa(lp668
g41
ag7
ag8
aa(lp669
g6
ag83
ag4
aa(lp670
g81
ag58
ag8
aa(lp671
g21
ag22
ag4
aa(lp672
g10
ag51
ag4
aa(lp673
g62
ag87
ag4
aa(lp674
g124
ag45
ag8
aa(lp675
g35
ag118
ag8
aa(lp676
g69
ag137
ag4
aa(lp677
g67
ag39
ag8
aa(lp678
g41
ag30
ag8
aa(lp679
g47
ag74
ag4
aa(lp680
g50
ag54
ag8
aa(lp681
g53
ag63
ag4
aa(lp682
g76
ag114
ag4
aa(lp683
g18
ag74
ag4
aa(lp684
g65
ag60
ag8
aa(lp685
g62
ag45
ag4
aa(lp686
g90
ag83
ag4
aa(lp687
g6
ag28
ag8
aa(lp688
g38
ag51
ag4
aa(lp689
g124
ag71
ag4
aa(lp690
g44
ag16
ag8
aa(lp691
g69
ag13
ag8
aa(lp692
g41
ag30
ag4
aa(lp693
g32
ag36
ag4
aa(lp694
g65
ag103
ag8
aa(lp695
g38
ag19
ag4
aa(lp696
g81
ag60
ag4
aa(lp697
g62
ag83
ag4
aa(lp698
g90
ag45
ag8
aa(lp699
g18
ag28
ag8
aa(lp700
g12
ag137
ag4
aa(lp701
g135
ag19
ag8
aa(lp702
g124
ag25
ag4
aa(lp703
g65
ag74
ag8
aa(lp704
g53
ag71
ag8
aa(lp705
g41
ag97
ag4
aa(lp706
g21
ag42
ag4
aa(lp707
g44
ag30
ag4
aa(lp708
g95
ag103
ag4
aa(lp709
g18
ag63
ag8
aa(lp710
g10
ag118
ag8
aa(lp711
g90
ag3
ag8
aa(lp712
g76
ag13
ag4
aa(lp713
g24
ag33
ag4
aa(lp714
g27
ag28
ag4
aa(lp715
g12
ag22
ag4
aa(lp716
g32
ag19
ag8
aa(lp717
g65
ag48
ag8
aa(lp718
g53
ag118
ag4
aa(lp719
g41
ag36
ag4
aa(lp720
g21
ag45
ag4
aa(lp721
g81
ag60
ag8
aa(lp722
g44
ag42
ag4
aa(lp723
g35
ag30
ag8
aa(lp724
g47
ag71
ag4
aa(lp725
g95
ag3
ag8
aa(lp726
g2
ag51
ag4
aa(lp727
g6
ag33
ag4
aa(lp728
g27
ag58
ag4
aa(lp729
g50
ag25
ag4
aa(lp730
g101
ag36
ag8
aa(lp731
g38
ag71
ag8
aa(lp732
g69
ag58
ag4
aa(lp733
g21
ag30
ag4
aa(lp734
g47
ag137
ag4
aa(lp735
g135
ag63
ag8
aa(lp736
g124
ag54
ag8
aa(lp737
g81
ag16
ag8
aa(lp738
g44
ag74
ag8
aa(lp739
g6
ag7
ag4
aa(lp740
g62
ag103
ag4
aa(lp741
g90
ag114
ag4
aa(lp742
g95
ag60
ag4
aa(lp743
g27
ag13
ag4
aa(lp744
g35
ag141
ag4
aa(lp745
g24
ag3
ag8
aa(lp746
g50
ag71
ag8
aa(lp747
g69
ag45
ag4
aa(lp748
g18
ag137
ag8
aa(lp749
g12
ag63
ag4
aa(lp750
g53
ag30
ag4
aa(lp751
g113
ag118
ag4
aa(lp752
g76
ag83
ag4
aa(lp753
g6
ag25
ag4
aa(lp754
g62
ag141
ag8
aa(lp755
g21
ag39
ag4
aa(lp756
g10
ag28
ag4
aa(lp757
g90
ag48
ag4
aa(lp758
g65
ag45
ag4
aa(lp759
g69
ag3
ag4
aa(lp760
g44
ag19
ag4
aa(lp761
g56
ag51
ag8
aa(lp762
g32
ag74
ag4
aa(lp763
g47
ag54
ag8
aa(lp764
g90
ag16
ag8
aa(lp765
g6
ag13
ag8
aa(lp766
g35
ag71
ag8
aa(lp767
g18
ag28
ag4
aa(lp768
g67
ag141
ag8
aa(lp769
g32
ag114
ag8
aa(lp770
g95
ag48
ag4
aa(lp771
g27
ag33
ag4
aa(lp772
g76
ag45
ag4
aa(lp773
g65
ag33
ag4
aa(lp774
g56
ag25
ag8
aa(lp775
g44
ag118
ag4
aa(lp776
g69
ag48
ag8
aa(lp777
g53
ag54
ag4
aa(lp778
g2
ag58
ag4
aa(lp779
g27
ag13
ag8
aa(lp780
g41
ag114
ag8
aa(lp781
g10
ag19
ag4
aa(lp782
g90
ag97
ag4
aa(lp783
g135
ag28
ag8
aa(lp784
g95
ag137
ag8
aa(lp785
g35
ag103
ag8
aa(lp786
g38
ag54
ag8
aa(lp787
g76
ag13
ag4
aa(lp788
g44
ag71
ag8
aa(lp789
g65
ag3
ag4
aa(lp790
g18
ag51
ag4
aa(lp791
g81
ag16
ag4
aa(lp792
g62
ag19
ag4
aa(lp793
g10
ag48
ag8
aa(lp794
g2
ag71
ag4
aa(lp795
g6
ag28
ag4
aa(lp796
g41
ag22
ag8
aa(lp797
g44
ag39
ag4
aa(lp798
g32
ag30
ag4
aa(lp799
g47
ag42
ag4
aa(lp800
g12
ag33
ag4
aa(lp801
g81
ag13
ag8
aa(lp802
g67
ag36
ag8
aa(lp803
g18
ag16
ag4
aa(lp804
g21
ag28
ag4
aa(lp805
g10
ag39
ag4
aa(lp806
g15
ag74
ag4
aa(lp807
g6
ag51
ag4
aa(lp808
g27
ag141
ag8
aa(lp809
g56
ag22
ag8
aa(lp810
g135
ag19
ag4
aa(lp811
g32
ag36
ag4
aa(lp812
g47
ag33
ag4
aa(lp813
g35
ag7
ag4
aa(lp814
g38
ag87
ag4
aa(lp815
g53
ag54
ag8
aa(lp816
g67
ag45
ag4
aa(lp817
g50
ag39
ag4
aa(lp818
g2
ag25
ag4
aa(lp819
g18
ag114
ag4
aa(lp820
g24
ag42
ag4
aa(lp821
g101
ag13
ag4
aa(lp822
g27
ag48
ag4
aa(lp823
g76
ag87
ag4
aa(lp824
g15
ag114
ag4
aa(lp825
g62
ag60
ag4
aa(lp826
g6
ag137
ag8
aa(lp827
g38
ag103
ag4
aa(lp828
g67
ag54
ag4
aa(lp829
g69
ag19
ag8
aa(lp830
g53
ag58
ag4
aa(lp831
g10
ag45
ag4
aa(lp832
g90
ag87
ag8
aa(lp833
g95
ag25
ag4
aa(lp834
g35
ag28
ag8
aa(lp835
g65
ag30
ag8
aa(lp836
g47
ag83
ag4
aa(lp837
g6
ag74
ag8
aa(lp838
g76
ag7
ag4
aa(lp839
g15
ag25
ag4
aa(lp840
g18
ag39
ag4
aa(lp841
g41
ag48
ag4
aa(lp842
g62
ag22
ag4
aa(lp843
g38
ag51
ag8
aa(lp844
g113
ag30
ag8
aa(lp845
g35
ag137
ag8
aa(lp846
g67
ag83
ag4
aa(lp847
g10
ag19
ag8
aa(lp848
g12
ag45
ag8
aa(lp849
g69
ag87
ag8
aa(lp850
g53
ag28
ag8
aa(lp851
g47
ag114
ag4
aa(lp852
g76
ag16
ag4
aa(lp853
g15
ag83
ag4
aa(lp854
g38
ag58
ag8
aa(lp855
g41
ag13
ag4
aa(lp856
g24
ag25
ag8
aa(lp857
g35
ag22
ag8
aa(lp858
g56
ag48
ag4
aa(lp859
g12
ag114
ag4
aa(lp860
g6
ag19
ag8
aa(lp861
g44
ag7
ag8
aa(lp862
g69
ag28
ag4
aa(lp863
g10
ag45
ag8
aa(lp864
g24
ag74
ag4
aa(lp865
g95
ag118
ag4
aa(lp866
g47
ag3
ag4
aa(lp867
g2
ag33
ag4
aa(lp868
g15
ag19
ag4
aa(lp869
g35
ag114
ag8
aa(lp870
g6
ag25
ag8
aa(lp871
g32
ag28
ag8
aa(lp872
g65
ag13
ag4
aa(lp873
g69
ag87
ag4
aa(lp874
g24
ag54
ag4
aa(lp875
g27
ag16
ag4
aa(lp876
g47
ag45
ag4
aa(lp877
g67
ag118
ag8
aa(lp878
g2
ag54
ag8
aa(lp879
g18
ag3
ag8
aa(lp880
g124
ag33
ag4
aa(lp881
g41
ag71
ag8
aa(lp882
g6
ag36
ag4
aa(lp883
g81
ag60
ag4
aa(lp884
g95
ag22
ag4
aa(lp885
g27
ag30
ag8
aa(lp886
g35
ag16
ag4
aa(lp887
g90
ag19
ag8
aa(lp888
g38
ag48
ag8
aa(lp889
g113
ag42
ag4
aa(lp890
g65
ag137
ag4
aa(lp891
g10
ag51
ag8
aa(lp892
g95
ag141
ag4
aa(lp893
g76
ag28
ag8
aa(lp894
g12
ag71
ag4
aa(lp895
g2
ag3
ag8
aa(lp896
g47
ag16
ag8
aa(lp897
g6
ag13
ag4
aa(lp898
g18
ag45
ag4
aa(lp899
g62
ag30
ag4
aa(lp900
g44
ag114
ag4
aa(lp901
g35
ag83
ag8
aa(lp902
g41
ag19
ag8
aa(lp903
g124
ag51
ag4
aa(lp904
g90
ag71
ag8
aa(lp905
g65
ag28
ag4
aa(lp906
g95
ag45
ag4
aa(lp907
g35
ag137
ag4
aa(lp908
g56
ag13
ag8
aa(lp909
g76
ag137
ag4
aa(lp910
g10
ag54
ag4
aa(lp911
g6
ag33
ag8
aa(lp912
g2
ag87
ag8
aa(lp913
g47
ag25
ag4
aa(lp914
g41
ag3
ag8
aa(lp915
g18
ag19
ag8
aa(lp916
g47
ag48
ag8
aa(lp917
g15
ag54
ag4
aa(lp918
g6
ag30
ag4
aa(lp919
g44
ag114
ag8
aa(lp920
g90
ag42
ag4
aa(lp921
g38
ag45
ag8
aa(lp922
g53
ag51
ag8
aa(lp923
g95
ag25
ag4
aa(lp924
g27
ag7
ag4
aa(lp925
g35
ag28
ag4
aa(lp926
g76
ag60
ag8
aa(lp927
g62
ag42
ag4
aa(lp928
g95
ag48
ag8
aa(lp929
g53
ag19
ag4
aa(lp930
g38
ag74
ag8
aa(lp931
g65
ag141
ag4
aa(lp932
g135
ag51
ag8
aa(lp933
g44
ag30
ag8
aa(lp934
g76
ag137
ag4
aa(lp935
g67
ag71
ag8
aa(lp936
g6
ag33
ag4
aa(lp937
g18
ag54
ag4
aa(lp938
g69
ag13
ag4
aa(lp939
g2
ag114
ag8
aa(lp940
g90
ag25
ag4
aa(lp941
g41
ag28
ag8
aa(lp942
g10
ag103
ag8
aa(lp943
g27
ag63
ag8
aa(lp944
g53
ag118
ag8
aa(lp945
g65
ag87
ag4
aa(lp946
g81
ag114
ag4
aa(lp947
g62
ag48
ag4
aa(lp948
g67
ag45
ag8
aa(lp949
g95
ag51
ag4
aa(lp950
g27
ag28
ag8
aa(lp951
g69
ag30
ag8
aa(lp952
g35
ag13
ag4
aa(lp953
g53
ag71
ag4
aa(lp954
g32
ag74
ag8
aa(lp955
g6
ag36
ag8
aa(lp956
g90
ag60
ag8
aa(lp957
g38
ag39
ag4
aa(lp958
g69
ag54
ag8
aa(lp959
g67
ag114
ag4
aa(lp960
g50
ag48
ag4
aa(lp961
g113
ag58
ag4
aa(lp962
g90
ag28
ag4
aa(lp963
g65
ag45
ag8
aa(lp964
g44
ag51
ag4
aa(lp965
g62
ag30
ag8
aa(lp966
g47
ag71
ag4
aa(lp967
g6
ag63
ag8
aa(lp968
g53
ag48
ag4
aa(lp969
g2
ag19
ag4
aa(lp970
g41
ag36
ag8
aa(lp971
g81
ag39
ag4
aa(lp972
g38
ag60
ag8
aa(lp973
g27
ag30
ag4
aa(lp974
g12
ag58
ag4
aa(lp975
g67
ag16
ag4
aa(lp976
g44
ag13
ag8
aa(lp977
g15
ag60
ag4
aa(lp978
g6
ag141
ag8
aa(lp979
g101
ag114
ag8
aa(lp980
g47
ag51
ag8
aa(lp981
g90
ag137
ag8
aa(lp982
g65
ag118
ag8
aa(lp983
g95
ag74
ag8
aa(lp984
g69
ag25
ag8
aa(lp985
g27
ag33
ag4
aa(lp986
g56
ag19
ag4
aa(lp987
g65
ag54
ag8
aa(lp988
g124
ag13
ag4
aa(lp989
g41
ag45
ag4
aa(lp990
g76
ag114
ag8
aa(lp991
g18
ag60
ag8
aa(lp992
g24
ag71
ag4
aa(lp993
g95
ag16
ag4
aa(lp994
g44
ag28
ag8
aa(lp995
g35
ag33
ag4
aa(lp996
g47
ag118
ag8
aa(lp997
g76
ag74
ag8
aa(lp998
g6
ag3
ag4
aa(lp999
g81
ag71
ag4
aa(lp1000
g24
ag114
ag4
aa(lp1001
g27
ag87
ag4
aa(lp1002
g35
ag30
ag8
aa(lp1003
g69
ag137
ag8
aa(lp1004
g12
ag28
ag4
aa(lp1005
g90
ag13
ag8
aa(lp1006
g41
ag19
ag4
aa(lp1007
g10
ag39
ag4
aa(lp1008
g56
ag45
ag4
aa(lp1009
g47
ag16
ag4
aa(lp1010
g18
ag118
ag8
aa(lp1011
g67
ag48
ag8
aa(lp1012
g2
ag71
ag4
aa(lp1013
g18
ag60
ag4
aa(lp1014
g27
ag42
ag8
aa(lp1015
g81
ag28
ag4
aa(lp1016
g32
ag114
ag4
aa(lp1017
g35
ag51
ag4
aa(lp1018
g95
ag16
ag8
aa(lp1019
g113
ag36
ag4
aa(lp1020
g65
ag19
ag4
aa(lp1021
g90
ag141
ag8
aa(lp1022
g6
ag87
ag8
aa(lp1023
g27
ag45
ag4
aa(lp1024
g47
ag54
ag4
aa(lp1025
g38
ag25
ag4
aa(lp1026
g124
ag114
ag4
aa(lp1027
g2
ag36
ag8
aa(lp1028
g47
ag71
ag8
aa(lp1029
g35
ag58
ag8
aa(lp1030
g69
ag51
ag4
aa(lp1031
g6
ag60
ag8
aa(lp1032
g90
ag30
ag8
aa(lp1033
g50
ag16
ag8
aa(lp1034
g65
ag137
ag4
aa(lp1035
g81
ag39
ag4
aa(lp1036
g67
ag33
ag8
aa(lp1037
g44
ag28
ag4
aa(lp1038
g76
ag42
ag4
aa(lp1039
g15
ag48
ag4
aa(lp1040
g18
ag54
ag4
aa(lp1041
g41
ag74
ag4
aa(lp1042
g35
ag114
ag8
aa(lp1043
g10
ag45
ag4
aa(lp1044
g38
ag22
ag8
aa(lp1045
g27
ag7
ag4
aa(lp1046
g56
ag51
ag4
aa(lp1047
g47
ag97
ag4
aa(lp1048
g53
ag28
ag4
aa(lp1049
g113
ag114
ag4
aa(lp1050
g41
ag51
ag4
aa(lp1051
g81
ag118
ag4
aa(lp1052
g44
ag137
ag4
aa(lp1053
g124
ag54
ag8
aa(lp1054
g18
ag3
ag8
aa(lp1055
g95
ag19
ag8
aa(lp1056
g6
ag13
ag8
aa(lp1057
g76
ag30
ag4
aa(lp1058
g69
ag74
ag4
aa(lp1059
g62
ag7
ag4
aa(lp1060
g35
ag22
ag8
aa(lp1061
g47
ag45
ag8
aa(lp1062
g6
ag137
ag4
aa(lp1063
g10
ag114
ag8
aa(lp1064
g44
ag30
ag4
aa(lp1065
g27
ag25
ag4
aa(lp1066
g44
ag54
ag8
aa(lp1067
g47
ag19
ag8
aa(lp1068
g41
ag48
ag8
aa(lp1069
g69
ag36
ag4
aa(lp1070
g90
ag16
ag4
aa(lp1071
g113
ag45
ag8
aa(lp1072
g18
ag39
ag8
aa(lp1073
g2
ag28
ag8
aa(lp1074
g32
ag51
ag4
aa(lp1075
g35
ag71
ag4
aa(lp1076
g62
ag118
ag8
aa(lp1077
g38
ag3
ag8
aa(lp1078
g65
ag42
ag4
aa(lp1079
g24
ag60
ag4
aa(lp1080
g56
ag25
ag4
aa(lp1081
g53
ag54
ag8
aa(lp1082
g76
ag71
ag4
aa(lp1083
g6
ag141
ag4
aa(lp1084
g47
ag58
ag8
aa(lp1085
g124
ag114
ag8
aa(lp1086
g95
ag45
ag8
aa(lp1087
g27
ag74
ag4
aa(lp1088
g32
ag22
ag4
aa(lp1089
g35
ag28
ag4
aa(lp1090
g56
ag7
ag8
aa(lp1091
g81
ag42
ag8
aa(lp1092
g44
ag141
ag4
aa(lp1093
g67
ag51
ag8
aa(lp1094
g95
ag19
ag4
aa(lp1095
g47
ag13
ag4
aa(lp1096
g50
ag13
ag4
aa(lp1097
g2
ag48
ag8
aa(lp1098
g21
ag36
ag4
aa(lp1099
g10
ag54
ag4
aa(lp1100
g6
ag22
ag8
aa(lp1101
g135
ag16
ag4
aa(lp1102
g65
ag28
ag8
aa(lp1103
g27
ag71
ag4
aa(lp1104
g32
ag33
ag4
aa(lp1105
g35
ag30
ag4
aa(lp1106
g38
ag58
ag4
aa(lp1107
g27
ag141
ag8
aa(lp1108
g6
ag33
ag8
aa(lp1109
g90
ag3
ag4
aa(lp1110
g44
ag103
ag8
aa(lp1111
g50
ag114
ag4
aa(lp1112
g2
ag60
ag4
aa(lp1113
g18
ag42
ag4
aa(lp1114
g81
ag36
ag4
aa(lp1115
g135
ag48
ag4
aa(lp1116
g95
ag16
ag4
aa(lp1117
g15
ag30
ag8
aa(lp1118
g32
ag7
ag4
aa(lp1119
g67
ag87
ag4
aa(lp1120
g62
ag141
ag4
aa(lp1121
g90
ag13
ag4
aa(lp1122
g47
ag51
ag8
aa(lp1123
g15
ag28
ag8
aa(lp1124
g6
ag83
ag8
aa(lp1125
g12
ag63
ag8
aa(lp1126
g53
ag19
ag8
aa(lp1127
g76
ag48
ag8
aa(lp1128
g2
ag103
ag4
aa(lp1129
g81
ag45
ag4
aa(lp1130
g41
ag60
ag8
aa(lp1131
g90
ag58
ag4
aa(lp1132
g95
ag114
ag4
aa(lp1133
g32
ag118
ag4
aa(lp1134
g53
ag114
ag4
aa(lp1135
g35
ag13
ag8
aa(lp1136
g6
ag71
ag4
aa(lp1137
g90
ag42
ag4
aa(lp1138
g95
ag51
ag8
aa(lp1139
g56
ag54
ag4
aa(lp1140
g10
ag48
ag8
aa(lp1141
g2
ag28
ag4
aa(lp1142
g65
ag54
ag4
aa(lp1143
g18
ag141
ag4
aa(lp1144
g62
ag45
ag8
aa(lp1145
g44
ag25
ag4
aa(lp1146
g67
ag83
ag8
aa(lp1147
g32
ag63
ag4
aa(lp1148
g47
ag19
ag4
aa(lp1149
g76
ag118
ag8
aa(lp1150
g53
ag13
ag8
aa(lp1151
g15
ag48
ag4
aa(lp1152
g6
ag22
ag4
aa(lp1153
g69
ag114
ag8
aa(lp1154
g24
ag28
ag4
aa(lp1155
g95
ag33
ag4
aa(lp1156
g2
ag19
ag8
aa(lp1157
g35
ag7
ag8
aa(lp1158
g6
ag54
ag4
aa(lp1159
g18
ag25
ag4
aa(lp1160
g10
ag137
ag4
aa(lp1161
g27
ag87
ag8
aa(lp1162
g67
ag30
ag8
aa(lp1163
g41
ag103
ag8
aa(lp1164
g135
ag118
ag8
aa(lp1165
g53
ag45
ag4
aa(lp1166
g15
ag42
ag4
aa(lp1167
g21
ag33
ag8
aa(lp1168
g95
ag36
ag4
aa(lp1169
g67
ag28
ag8
aa(lp1170
g18
ag7
ag8
aa(lp1171
g6
ag48
ag4
aa(lp1172
g41
ag60
ag4
aa(lp1173
g81
ag74
ag4
aa(lp1174
g27
ag22
ag8
aa(lp1175
g113
ag30
ag8
aa(lp1176
g47
ag36
ag4
aa(lp1177
g38
ag137
ag4
aa(lp1178
g2
ag16
ag8
aa(lp1179
g69
ag13
ag4
aa(lp1180
g21
ag83
ag4
aa(lp1181
g62
ag54
ag4
aa(lp1182
g50
ag51
ag8
aa(lp1183
g95
ag45
ag4
aa(lp1184
g41
ag28
ag8
aa(lp1185
g67
ag63
ag8
aa(lp1186
g15
ag118
ag4
aa(lp1187
g10
ag7
ag8
aa(lp1188
g81
ag48
ag4
aa(lp1189
g18
ag30
ag8
aa(lp1190
g32
ag87
ag4
aa(lp1191
g95
ag54
ag8
aa(lp1192
g2
ag22
ag4
aa(lp1193
g62
ag13
ag8
aa(lp1194
g6
ag28
ag4
aa(lp1195
g10
ag42
ag8
aa(lp1196
g76
ag87
ag8
aa(lp1197
g124
ag51
ag8
aa(lp1198
g27
ag141
ag4
aa(lp1199
g35
ag114
ag4
aa(lp1200
g67
ag103
ag4
aa(lp1201
g50
ag25
ag8
aa(lp1202
g15
ag45
ag8
aa(lp1203
g65
ag30
ag8
aa(lp1204
g38
ag16
ag4
aa(lp1205
g12
ag51
ag4
aa(lp1206
g15
ag19
ag8
aa(lp1207
g124
ag118
ag4
aa(lp1208
g95
ag16
ag8
aa(lp1209
g2
ag13
ag4
aa(lp1210
g76
ag60
ag4
aa(lp1211
g65
ag28
ag4
aa(lp1212
g18
ag141
ag8
aa(lp1213
g56
ag42
ag8
aa(lp1214
g35
ag33
ag8
aa(lp1215
g44
ag22
ag8
aa(lp1216
g27
ag114
ag4
aa(lp1217
g32
ag97
ag4
aa(lp1218
g124
ag16
ag4
aa(lp1219
g2
ag103
ag4
aa(lp1220
g113
ag83
ag4
aa(lp1221
g76
ag58
ag4
aa(lp1222
g6
ag118
ag4
aa(lp1223
g41
ag137
ag4
aa(lp1224
g81
ag54
ag4
aa(lp1225
g10
ag3
ag4
aa(lp1226
g24
ag45
ag8
aa(lp1227
g65
ag87
ag8
aa(lp1228
g95
ag19
ag4
aa(lp1229
g101
ag30
ag4
aa(lp1230
g35
ag42
ag4
aa(lp1231
g81
ag54
ag8
aa(lp1232
g95
ag71
ag8
aa(lp1233
g69
ag137
ag4
aa(lp1234
g90
ag114
ag4
aa(lp1235
g24
ag13
ag4
aa(lp1236
g47
ag3
ag4
aa(lp1237
g2
ag118
ag4
aa(lp1238
g76
ag33
ag4
aa(lp1239
g6
ag83
ag4
aa(lp1240
g18
ag7
ag4
aa(lp1241
g50
ag60
ag8
aa(lp1242
g35
ag141
ag4
aa(lp1243
g67
ag48
ag4
aa(lp1244
g15
ag13
ag4
aa(lp1245
g62
ag42
ag8
aa(lp1246
g56
ag114
ag8
aa(lp1247
g135
ag25
ag4
aa(lp1248
g53
ag51
ag8
aa(lp1249
g95
ag74
ag4
aa(lp1250
g90
ag28
ag8
aa(lp1251
g47
ag58
ag4
aa(lp1252
g12
ag118
ag8
aa(lp1253
g50
ag48
ag8
aa(lp1254
g90
ag7
ag8
aa(lp1255
g44
ag97
ag8
aa(lp1256
g76
ag141
ag8
aa(lp1257
g10
ag45
ag8
aa(lp1258
g32
ag83
ag4
aa(lp1259
g12
ag3
ag8
aa(lp1260
g18
ag16
ag8
aa(lp1261
g35
ag42
ag8
aa(lp1262
g21
ag71
ag4
aa(lp1263
g95
ag13
ag4
aa(lp1264
g65
ag28
ag8
aa(lp1265
g47
ag51
ag4
aa(lp1266
g50
ag48
ag4
aa(lp1267
g76
ag83
ag4
aa(lp1268
g47
ag71
ag8
aa(lp1269
g90
ag141
ag8
aa(lp1270
g44
ag25
ag8
aa(lp1271
g10
ag51
ag4
aa(lp1272
g62
ag114
ag4
aa(lp1273
g2
ag45
ag8
aa(lp1274
g32
ag30
ag4
aa(lp1275
g95
ag54
ag8
aa(lp1276
g101
ag13
ag8
aa(lp1277
g53
ag58
ag8
aa(lp1278
g6
ag42
ag8
aa(lp1279
g35
ag7
ag4
aa(lp1280
g38
ag3
ag4
aa(lp1281
g67
ag19
ag4
aa(lp1282
g15
ag48
ag8
aa(lp1283
g135
ag74
ag8
aa(lp1284
g69
ag141
ag8
aa(lp1285
g81
ag103
ag4
aa(lp1286
g62
ag36
ag4
aa(lp1287
g90
ag137
ag4
aa(lp1288
g44
ag114
ag4
aa(lp1289
g24
ag118
ag4
aa(lp1290
g95
ag60
ag4
aa(lp1291
g27
ag63
ag4
aa(lp1292
g56
ag97
ag4
aa(lp1293
g65
ag137
ag4
aa(lp1294
g95
ag25
ag4
aa(lp1295
g90
ag83
ag8
aa(lp1296
g47
ag118
ag4
aa(lp1297
g67
ag60
ag4
aa(lp1298
g18
ag74
ag8
aa(lp1299
g6
ag33
ag4
aa(lp1300
g44
ag63
ag4
aa(lp1301
g65
ag137
ag4
aa(lp1302
g81
ag39
ag8
aa(lp1303
g67
ag60
ag4
aa(lp1304
g90
ag83
ag8
aa(lp1305
g47
ag118
ag4
aa(lp1306
g2
ag58
ag4
aa(lp1307
g6
ag33
ag4
aa(lp1308
g35
ag87
ag8
aa(lp1309
g95
ag25
ag8
aa(lp1310
g90
ag83
ag4
aa(lp1311
g65
ag137
ag8
aa(lp1312
g18
ag74
ag4
aa(lp1313
g10
ag3
ag4
aa(lp1314
g38
ag103
ag4
aa(lp1315
g95
ag25
ag8
aa(lp1316
g62
ag97
ag4
aa(lp1317
g90
ag83
ag4
aa(lp1318
g35
ag87
ag4
aa(lp1319
g2
ag58
ag8
aa(lp1320
g10
ag3
ag4
aa(lp1321
g32
ag7
ag4
aa(lp1322
g38
ag103
ag4
aa(lp1323
g6
ag33
ag8
aa(lp1324
g35
ag87
ag4
aa(lp1325
g67
ag60
ag4
aa(lp1326
g65
ag137
ag4
aa(lp1327
g95
ag25
ag4
aa(lp1328
g2
ag58
ag4
aa(lp1329
g6
ag33
ag4
aa(lp1330
g44
ag63
ag4
aa(lp1331
g47
ag118
ag4
aa(lp1332
g10
ag3
ag4
aa(lp1333
g18
ag74
ag4
aa(lp1334
g35
ag87
ag4
aa(lp1335
g47
ag118
ag8
aa(lp1336
g67
ag60
ag4
aa(lp1337
g65
ag22
ag4
aa(lp1338
g2
ag58
ag4
aa(lp1339
g6
ag63
ag4
aa(lp1340
g67
ag39
ag4
aa(lp1341
g65
ag22
ag4
aa(lp1342
g2
ag103
ag8
aa(lp1343
g35
ag97
ag8
aa(lp1344
g67
ag39
ag4
aa(lp1345
g2
ag103
ag8
aa(lp1346
g90
ag7
ag4
aa(lp1347
g6
ag63
ag8
aa(lp1348
g2
ag103
ag4
aa(lp1349
g67
ag39
ag8
aa(lp1350
g65
ag22
ag8
aa(lp1351
g6
ag63
ag8
aa(lp1352
g2
ag103
ag4
aa(lp1353
g95
ag3
ag4
aa(lp1354
g65
ag22
ag4
aa(lp1355
g6
ag63
ag4
aa(lp1356
g67
ag39
ag4
aa(lp1357
g67
ag74
ag4
aa(lp1358
g65
ag97
ag8
aa.